target datalayout = "e-m:e-p270:32:32-p271:32:32-p272:64:64-i64:64-i128:128-f80:128-n8:16:32:64-S128"
target triple = "x86_64-pc-linux-gnu"

%"class.sat::probing" = type { ptr, i32, %"class.sat::literal_set", %class.svector.2, i32, i8, i32, i8, i8, i64, i32, %class.vector.4, %class.svector.5, %"class.sat::big" }
%"class.sat::literal_set" = type { %class.tracked_uint_set }
%class.tracked_uint_set = type { %class.svector, %class.svector.0 }
%class.svector = type { %class.vector }
%class.vector = type { ptr }
%class.svector.0 = type { %class.vector.1 }
%class.vector.1 = type { ptr }
%class.svector.2 = type { %class.vector.3 }
%class.vector.3 = type { ptr }
%class.vector.4 = type { ptr }
%class.svector.5 = type { %class.vector.6 }
%class.vector.6 = type { ptr }
%"class.sat::big" = type { ptr, i32, %class.vector.7, %class.svector.8, %class.svector.10, %class.svector.10, %class.svector.2, %class.svector.2, i8, i8, %class.vector.7 }
%class.svector.8 = type { %class.vector.9 }
%class.vector.9 = type { ptr }
%class.svector.10 = type { %class.vector.11 }
%class.vector.11 = type { ptr }
%class.vector.7 = type { ptr }
%"class.sat::literal" = type { i32 }
%"struct.sat::probing::cache_entry" = type { i8, %class.svector.2 }

; Function Attrs: mustprogress uwtable
define linkonce_odr hidden void @_ZN6vectorIN3sat7literalELb0EjE11free_memoryEv(ptr noundef nonnull align 8 dereferenceable(8) %0) #4 comdat align 2 {
  %2 = alloca ptr, align 8
  store ptr %0, ptr %2, align 8, !tbaa !62
  %3 = load ptr, ptr %2, align 8
  %4 = getelementptr inbounds nuw %class.vector.3, ptr %3, i32 0, i32 0
  %5 = load ptr, ptr %4, align 8, !tbaa !70
  %6 = getelementptr inbounds i32, ptr %5, i64 -2
  call void @_ZN6memory10deallocateEPv(ptr noundef %6)
  ret void
}

; Function Attrs: mustprogress uwtable
define linkonce_odr hidden void @_ZN6vectorIN3sat7literalELb0EjE7destroyEv(ptr noundef nonnull align 8 dereferenceable(8) %0) #4 comdat align 2 {
  %2 = alloca ptr, align 8
  store ptr %0, ptr %2, align 8, !tbaa !62
  %3 = load ptr, ptr %2, align 8
  %4 = getelementptr inbounds nuw %class.vector.3, ptr %3, i32 0, i32 0
  %5 = load ptr, ptr %4, align 8, !tbaa !70
  %6 = icmp ne ptr %5, null
  br i1 %6, label %7, label %8

7:                                                ; preds = %1
  call void @_ZN6vectorIN3sat7literalELb0EjE11free_memoryEv(ptr noundef nonnull align 8 dereferenceable(8) %3)
  br label %8

8:                                                ; preds = %7, %1
  ret void
}

; Function Attrs: mustprogress uwtable
define linkonce_odr hidden void @_ZN6vectorIN3sat7literalELb0EjE8finalizeEv(ptr noundef nonnull align 8 dereferenceable(8) %0) #4 comdat align 2 {
  %2 = alloca ptr, align 8
  store ptr %0, ptr %2, align 8, !tbaa !62
  %3 = load ptr, ptr %2, align 8
  call void @_ZN6vectorIN3sat7literalELb0EjE7destroyEv(ptr noundef nonnull align 8 dereferenceable(8) %3)
  %4 = getelementptr inbounds nuw %class.vector.3, ptr %3, i32 0, i32 0
  store ptr null, ptr %4, align 8, !tbaa !70
  ret void
}

; Function Attrs: mustprogress nounwind uwtable
define linkonce_odr hidden noundef nonnull align 8 dereferenceable(16) ptr @_ZN6vectorIN3sat7probing11cache_entryELb1EjEixEj(ptr noundef nonnull align 8 dereferenceable(8) %0, i32 noundef %1) #5 comdat align 2 {
  %3 = alloca ptr, align 8
  %4 = alloca i32, align 4
  store ptr %0, ptr %3, align 8, !tbaa !47
  store i32 %1, ptr %4, align 4, !tbaa !69
  %5 = load ptr, ptr %3, align 8
  %6 = getelementptr inbounds nuw %class.vector.4, ptr %5, i32 0, i32 0
  %7 = load ptr, ptr %6, align 8, !tbaa !49
  %8 = load i32, ptr %4, align 4, !tbaa !69
  %9 = zext i32 %8 to i64
  %10 = getelementptr inbounds nuw %"struct.sat::probing::cache_entry", ptr %7, i64 %9
  ret ptr %10
}

; Function Attrs: mustprogress nounwind uwtable
define linkonce_odr hidden noundef i32 @_ZNK6vectorIN3sat7probing11cache_entryELb1EjE4sizeEv(ptr noundef nonnull align 8 dereferenceable(8) %0) #5 comdat align 2 {
  %2 = alloca i32, align 4
  %3 = alloca ptr, align 8
  store ptr %0, ptr %3, align 8, !tbaa !47
  %4 = load ptr, ptr %3, align 8
  %5 = getelementptr inbounds nuw %class.vector.4, ptr %4, i32 0, i32 0
  %6 = load ptr, ptr %5, align 8, !tbaa !49
  %7 = icmp eq ptr %6, null
  br i1 %7, label %8, label %9

8:                                                ; preds = %1
  store i32 0, ptr %2, align 4
  br label %14

9:                                                ; preds = %1
  %10 = getelementptr inbounds nuw %class.vector.4, ptr %4, i32 0, i32 0
  %11 = load ptr, ptr %10, align 8, !tbaa !49
  %12 = getelementptr inbounds i32, ptr %11, i64 -1
  %13 = load i32, ptr %12, align 4, !tbaa !69
  store i32 %13, ptr %2, align 4
  br label %14

14:                                               ; preds = %9, %8
  %15 = load i32, ptr %2, align 4
  ret i32 %15
}

; Function Attrs: mustprogress nounwind uwtable
define linkonce_odr hidden noundef i32 @_ZNK3sat7literal5indexEv(ptr noundef nonnull align 4 dereferenceable(4) %0) #5 comdat align 2 {
  %2 = alloca ptr, align 8
  store ptr %0, ptr %2, align 8, !tbaa !66
  %3 = load ptr, ptr %2, align 8
  %4 = getelementptr inbounds nuw %"class.sat::literal", ptr %3, i32 0, i32 0
  %5 = load i32, ptr %4, align 4, !tbaa !67
  ret i32 %5
}

; Function Attrs: mustprogress uwtable
define hidden void @_ZN3sat7probing11reset_cacheENS_7literalE(ptr noundef nonnull align 8 dereferenceable(168) %0, i32 %1) #4 align 2 {
  %3 = alloca %"class.sat::literal", align 4
  %4 = alloca ptr, align 8
  %5 = getelementptr inbounds nuw %"class.sat::literal", ptr %3, i32 0, i32 0
  store i32 %1, ptr %5, align 4
  store ptr %0, ptr %4, align 8, !tbaa !3
  %6 = load ptr, ptr %4, align 8
  %7 = call noundef i32 @_ZNK3sat7literal5indexEv(ptr noundef nonnull align 4 dereferenceable(4) %3)
  %8 = getelementptr inbounds nuw %"class.sat::probing", ptr %6, i32 0, i32 11
  %9 = call noundef i32 @_ZNK6vectorIN3sat7probing11cache_entryELb1EjE4sizeEv(ptr noundef nonnull align 8 dereferenceable(8) %8)
  %10 = icmp ult i32 %7, %9
  br i1 %10, label %11, label %20

11:                                               ; preds = %2
  %12 = getelementptr inbounds nuw %"class.sat::probing", ptr %6, i32 0, i32 11
  %13 = call noundef i32 @_ZNK3sat7literal5indexEv(ptr noundef nonnull align 4 dereferenceable(4) %3)
  %14 = call noundef nonnull align 8 dereferenceable(16) ptr @_ZN6vectorIN3sat7probing11cache_entryELb1EjEixEj(ptr noundef nonnull align 8 dereferenceable(8) %12, i32 noundef %13)
  %15 = getelementptr inbounds nuw %"struct.sat::probing::cache_entry", ptr %14, i32 0, i32 0
  store i8 0, ptr %15, align 8, !tbaa !64
  %16 = getelementptr inbounds nuw %"class.sat::probing", ptr %6, i32 0, i32 11
  %17 = call noundef i32 @_ZNK3sat7literal5indexEv(ptr noundef nonnull align 4 dereferenceable(4) %3)
  %18 = call noundef nonnull align 8 dereferenceable(16) ptr @_ZN6vectorIN3sat7probing11cache_entryELb1EjEixEj(ptr noundef nonnull align 8 dereferenceable(8) %16, i32 noundef %17)
  %19 = getelementptr inbounds nuw %"struct.sat::probing::cache_entry", ptr %18, i32 0, i32 1
  call void @_ZN6vectorIN3sat7literalELb0EjE8finalizeEv(ptr noundef nonnull align 8 dereferenceable(8) %19)
  br label %20

20:                                               ; preds = %11, %2
  ret void
}