; Function Attrs: mustprogress uwtable
define hidden void @_ZN3sat7probing11reset_cacheENS_7literalE(ptr noundef nonnull readonly align 8 captures(none) dereferenceable(168) %0, i32 %1) local_unnamed_addr #3 align 2 {
  %3 = getelementptr inbounds nuw i8, ptr %0, i64 72
  %4 = load ptr, ptr %3, align 8, !tbaa !59
  %5 = icmp eq ptr %4, null
  br i1 %5, label %_ZNK6vectorIN3sat7probing11cache_entryELb1EjE4sizeEv.exit.thread, label %_ZNK6vectorIN3sat7probing11cache_entryELb1EjE4sizeEv.exit

_ZNK6vectorIN3sat7probing11cache_entryELb1EjE4sizeEv.exit: ; preds = %2
  %6 = getelementptr inbounds i8, ptr %4, i64 -4
  %7 = load i32, ptr %6, align 4, !tbaa !52
  %8 = icmp ult i32 %1, %7
  br i1 %8, label %9, label %_ZNK6vectorIN3sat7probing11cache_entryELb1EjE4sizeEv.exit.thread

9:                                                ; preds = %_ZNK6vectorIN3sat7probing11cache_entryELb1EjE4sizeEv.exit
  %10 = zext i32 %1 to i64
  %11 = getelementptr inbounds nuw %"struct.sat::probing::cache_entry", ptr %4, i64 %10
  store i8 0, ptr %11, align 8, !tbaa !63
  %12 = getelementptr inbounds nuw i8, ptr %11, i64 8
  %13 = load ptr, ptr %12, align 8, !tbaa !53
  %.not.i.i = icmp eq ptr %13, null
  br i1 %.not.i.i, label %_ZN6vectorIN3sat7literalELb0EjE8finalizeEv.exit, label %14

14:                                               ; preds = %9
  %15 = getelementptr inbounds i8, ptr %13, i64 -8
  tail call void @_ZN6memory10deallocateEPv(ptr noundef nonnull %15)
  br label %_ZN6vectorIN3sat7literalELb0EjE8finalizeEv.exit

_ZN6vectorIN3sat7literalELb0EjE8finalizeEv.exit:  ; preds = %9, %14
  store ptr null, ptr %12, align 8, !tbaa !53
  br label %_ZNK6vectorIN3sat7probing11cache_entryELb1EjE4sizeEv.exit.thread

_ZNK6vectorIN3sat7probing11cache_entryELb1EjE4sizeEv.exit.thread: ; preds = %2, %_ZN6vectorIN3sat7literalELb0EjE8finalizeEv.exit, %_ZNK6vectorIN3sat7probing11cache_entryELb1EjE4sizeEv.exit
  ret void
}